; Function Attrs: mustprogress nounwind uwtable
define dso_local void @_ZN4i18n12phonenumbers17RegexBasedMatcherD2Ev(ptr noundef nonnull align 8 captures(none) dereferenceable(24) initializes((0, 8)) %0) unnamed_addr #6 align 2 {
  store ptr getelementptr inbounds nuw inrange(-16, 24) (i8, ptr @_ZTVN4i18n12phonenumbers17RegexBasedMatcherE, i64 16), ptr %0, align 8, !tbaa !4
  %2 = getelementptr inbounds nuw i8, ptr %0, i64 16
  %3 = load ptr, ptr %2, align 8, !tbaa !12
  %4 = icmp eq ptr %3, null
  br i1 %4, label %_ZN5boost10scoped_ptrIN4i18n12phonenumbers11RegExpCacheEED2Ev.exit, label %5

5:                                                ; preds = %1
  tail call void @_ZN4i18n12phonenumbers11RegExpCacheD1Ev(ptr noundef nonnull align 8 dereferenceable(56) %3) #10
  tail call void @_ZdlPvm(ptr noundef nonnull %3, i64 noundef 56) #9
  br label %_ZN5boost10scoped_ptrIN4i18n12phonenumbers11RegExpCacheEED2Ev.exit

_ZN5boost10scoped_ptrIN4i18n12phonenumbers11RegExpCacheEED2Ev.exit: ; preds = %1, %5
  %6 = getelementptr inbounds nuw i8, ptr %0, i64 8
  %7 = load ptr, ptr %6, align 8, !tbaa !7
  %8 = icmp eq ptr %7, null
  br i1 %8, label %_ZN5boost10scoped_ptrIKN4i18n12phonenumbers21AbstractRegExpFactoryEED2Ev.exit, label %9

9:                                                ; preds = %_ZN5boost10scoped_ptrIN4i18n12phonenumbers11RegExpCacheEED2Ev.exit
  %10 = load ptr, ptr %7, align 8, !tbaa !4
  %11 = getelementptr inbounds nuw i8, ptr %10, i64 8
  %12 = load ptr, ptr %11, align 8
  tail call void %12(ptr noundef nonnull align 8 dereferenceable(8) %7) #10
  br label %_ZN5boost10scoped_ptrIKN4i18n12phonenumbers21AbstractRegExpFactoryEED2Ev.exit

_ZN5boost10scoped_ptrIKN4i18n12phonenumbers21AbstractRegExpFactoryEED2Ev.exit: ; preds = %_ZN5boost10scoped_ptrIN4i18n12phonenumbers11RegExpCacheEED2Ev.exit, %9
  ret void
}